; Function Attrs: mustprogress uwtable
define void @_ZNK12FilterCreate10filterNameEi(ptr dead_on_unwind noalias nocapture writable writeonly sret(%class.QString) align 8 %0, ptr nocapture nonnull readnone align 8 %1, i32 noundef %2) unnamed_addr #9 align 2 {
  switch i32 %2, label %28 [
    i32 0, label %4
    i32 1, label %6
    i32 2, label %8
    i32 3, label %10
    i32 4, label %12
    i32 5, label %14
    i32 6, label %16
    i32 8, label %18
    i32 7, label %20
    i32 9, label %22
    i32 10, label %24
    i32 11, label %26
  ]

4:                                                ; preds = %3
  %5 = tail call noundef ptr @_ZN7QString16fromAscii_helperEPKci(ptr noundef nonnull @.str.10, i32 noundef 8)
  br label %28

6:                                                ; preds = %3
  %7 = tail call noundef ptr @_ZN7QString16fromAscii_helperEPKci(ptr noundef nonnull @.str.11, i32 noundef 7)
  br label %28

8:                                                ; preds = %3
  %9 = tail call noundef ptr @_ZN7QString16fromAscii_helperEPKci(ptr noundef nonnull @.str.12, i32 noundef 6)
  br label %28

10:                                               ; preds = %3
  %11 = tail call noundef ptr @_ZN7QString16fromAscii_helperEPKci(ptr noundef nonnull @.str.13, i32 noundef 10)
  br label %28

12:                                               ; preds = %3
  %13 = tail call noundef ptr @_ZN7QString16fromAscii_helperEPKci(ptr noundef nonnull @.str.14, i32 noundef 18)
  br label %28

14:                                               ; preds = %3
  %15 = tail call noundef ptr @_ZN7QString16fromAscii_helperEPKci(ptr noundef nonnull @.str.15, i32 noundef 11)
  br label %28

16:                                               ; preds = %3
  %17 = tail call noundef ptr @_ZN7QString16fromAscii_helperEPKci(ptr noundef nonnull @.str.16, i32 noundef 12)
  br label %28

18:                                               ; preds = %3
  %19 = tail call noundef ptr @_ZN7QString16fromAscii_helperEPKci(ptr noundef nonnull @.str.17, i32 noundef 10)
  br label %28

20:                                               ; preds = %3
  %21 = tail call noundef ptr @_ZN7QString16fromAscii_helperEPKci(ptr noundef nonnull @.str.18, i32 noundef 11)
  br label %28

22:                                               ; preds = %3
  %23 = tail call noundef ptr @_ZN7QString16fromAscii_helperEPKci(ptr noundef nonnull @.str.19, i32 noundef 4)
  br label %28

24:                                               ; preds = %3
  %25 = tail call noundef ptr @_ZN7QString16fromAscii_helperEPKci(ptr noundef nonnull @.str.20, i32 noundef 5)
  br label %28

26:                                               ; preds = %3
  %27 = tail call noundef ptr @_ZN7QString16fromAscii_helperEPKci(ptr noundef nonnull @.str.21, i32 noundef 24)
  br label %28

28:                                               ; preds = %3, %26, %24, %22, %20, %18, %16, %14, %12, %10, %8, %6, %4
  %_ZN10QArrayData11shared_nullE.sink = phi ptr [ %27, %26 ], [ %25, %24 ], [ %23, %22 ], [ %21, %20 ], [ %19, %18 ], [ %17, %16 ], [ %15, %14 ], [ %13, %12 ], [ %11, %10 ], [ %9, %8 ], [ %7, %6 ], [ %5, %4 ], [ @_ZN10QArrayData11shared_nullE, %3 ]
  store ptr %_ZN10QArrayData11shared_nullE.sink, ptr %0, align 8
  ret void
}